; Function Attrs: mustprogress uwtable
define hidden noundef zeroext i1 @_ZN4cvc58internal6theory11quantifiers19ConjectureGenerator13isHandledTermENS0_12NodeTemplateILb0EEE(ptr noundef nonnull align 8 dereferenceable(4072) %0, ptr noundef %1) local_unnamed_addr #3 align 2 personality ptr @__gxx_personality_v0 {
  %3 = alloca %"class.cvc5::internal::NodeTemplate.3", align 8
  %4 = alloca %"class.cvc5::internal::NodeTemplate.3", align 8
  %5 = alloca %"class.cvc5::internal::NodeTemplate.3", align 8
  %6 = tail call noundef ptr @_ZNK4cvc58internal6theory11quantifiers17QuantifiersModule15getTermDatabaseEv(ptr noundef nonnull align 8 dereferenceable(48) %0)
  %7 = load ptr, ptr %1, align 8, !tbaa !3
  store ptr %7, ptr %3, align 8, !tbaa !11
  %8 = load i64, ptr %7, align 8
  %9 = lshr i64 %8, 40
  %10 = trunc nuw nsw i64 %9 to i32
  %11 = and i32 %10, 1048575
  %12 = icmp samesign ult i32 %11, 1048574
  br i1 %12, label %13, label %18, !prof !33

13:                                               ; preds = %2
  %14 = add i64 %8, 1099511627776
  %15 = and i64 %14, 1152920405095219200
  %16 = and i64 %8, -1152920405095219201
  %17 = or disjoint i64 %15, %16
  store i64 %17, ptr %7, align 8
  br label %_ZN4cvc58internal12NodeTemplateILb1EEC2ERKNS1_ILb0EEE.exit

18:                                               ; preds = %2
  %19 = icmp eq i32 %11, 1048574
  br i1 %19, label %20, label %_ZN4cvc58internal12NodeTemplateILb1EEC2ERKNS1_ILb0EEE.exit, !prof !15

20:                                               ; preds = %18
  %21 = or i64 %8, 1152920405095219200
  store i64 %21, ptr %7, align 8
  tail call void @_ZN4cvc58internal4expr9NodeValue20markRefCountMaxedOutEv(ptr noundef nonnull align 8 dereferenceable(24) %7)
  br label %_ZN4cvc58internal12NodeTemplateILb1EEC2ERKNS1_ILb0EEE.exit

_ZN4cvc58internal12NodeTemplateILb1EEC2ERKNS1_ILb0EEE.exit: ; preds = %13, %18, %20
  %22 = invoke noundef zeroext i1 @_ZN4cvc58internal6theory11quantifiers6TermDb12isTermActiveENS0_12NodeTemplateILb1EEE(ptr noundef nonnull align 8 dereferenceable(1088) %6, ptr noundef nonnull %3)
          to label %23 unwind label %94

23:                                               ; preds = %_ZN4cvc58internal12NodeTemplateILb1EEC2ERKNS1_ILb0EEE.exit
  br i1 %22, label %24, label %.critedge

24:                                               ; preds = %23
  %25 = load ptr, ptr %1, align 8, !tbaa !3
  store ptr %25, ptr %4, align 8, !tbaa !11
  %26 = load i64, ptr %25, align 8
  %27 = lshr i64 %26, 40
  %28 = trunc nuw nsw i64 %27 to i32
  %29 = and i32 %28, 1048575
  %30 = icmp samesign ult i32 %29, 1048574
  br i1 %30, label %31, label %36, !prof !33

31:                                               ; preds = %24
  %32 = add i64 %26, 1099511627776
  %33 = and i64 %32, 1152920405095219200
  %34 = and i64 %26, -1152920405095219201
  %35 = or disjoint i64 %33, %34
  store i64 %35, ptr %25, align 8
  br label %_ZN4cvc58internal12NodeTemplateILb1EEC2ERKNS1_ILb0EEE.exit15

36:                                               ; preds = %24
  %37 = icmp eq i32 %29, 1048574
  br i1 %37, label %38, label %_ZN4cvc58internal12NodeTemplateILb1EEC2ERKNS1_ILb0EEE.exit15, !prof !15

38:                                               ; preds = %36
  %39 = or i64 %26, 1152920405095219200
  store i64 %39, ptr %25, align 8
  invoke void @_ZN4cvc58internal4expr9NodeValue20markRefCountMaxedOutEv(ptr noundef nonnull align 8 dereferenceable(24) %25)
          to label %_ZN4cvc58internal12NodeTemplateILb1EEC2ERKNS1_ILb0EEE.exit15 unwind label %94

_ZN4cvc58internal12NodeTemplateILb1EEC2ERKNS1_ILb0EEE.exit15: ; preds = %36, %31, %38
  %40 = invoke noundef zeroext i1 @_ZN4cvc58internal6theory11quantifiers4inst15TriggerTermInfo15isAtomicTriggerENS0_12NodeTemplateILb1EEE(ptr noundef nonnull %4)
          to label %41 unwind label %96

41:                                               ; preds = %_ZN4cvc58internal12NodeTemplateILb1EEC2ERKNS1_ILb0EEE.exit15
  br i1 %40, label %42, label %.critedge.thread21

42:                                               ; preds = %41
  %43 = load ptr, ptr %1, align 8, !tbaa !3
  %44 = getelementptr inbounds nuw i8, ptr %43, i64 8
  %45 = load i64, ptr %44, align 8
  %46 = and i64 %45, 1023
  %.not = icmp eq i64 %46, 27
  br i1 %.not, label %47, label %.critedge.thread21

47:                                               ; preds = %42
  call void @llvm.lifetime.start.p0(i64 8, ptr nonnull %5) #29
  invoke void @_ZNK4cvc58internal12NodeTemplateILb0EE11getOperatorEv(ptr dead_on_unwind nonnull writable sret(%"class.cvc5::internal::NodeTemplate.3") align 8 %5, ptr noundef nonnull align 8 dereferenceable(8) %1)
          to label %48 unwind label %98

48:                                               ; preds = %47
  %49 = load ptr, ptr %5, align 8, !tbaa !11
  %50 = getelementptr inbounds nuw i8, ptr %49, i64 8
  %51 = load i64, ptr %50, align 8
  %52 = and i64 %51, 1023
  %53 = icmp ne i64 %52, 9
  %54 = load i64, ptr %49, align 8
  %55 = and i64 %54, 1152920405095219200
  %.not.i.i = icmp eq i64 %55, 1152920405095219200
  br i1 %.not.i.i, label %.critedge.thread, label %56, !prof !15

56:                                               ; preds = %48
  %57 = add i64 %54, 1152920405095219200
  %58 = and i64 %57, 1152920405095219200
  %59 = and i64 %54, -1152920405095219201
  %60 = or disjoint i64 %58, %59
  store i64 %60, ptr %49, align 8
  %61 = icmp eq i64 %58, 0
  br i1 %61, label %62, label %.critedge.thread, !prof !15

62:                                               ; preds = %56
  invoke void @_ZN4cvc58internal4expr9NodeValue15markForDeletionEv(ptr noundef nonnull align 8 dereferenceable(24) %49)
          to label %.critedge.thread unwind label %63

63:                                               ; preds = %62
  %64 = landingpad { ptr, i32 }
          catch ptr null
  %65 = extractvalue { ptr, i32 } %64, 0
  call void @__clang_call_terminate(ptr %65) #30
  unreachable

.critedge.thread:                                 ; preds = %62, %56, %48
  call void @llvm.lifetime.end.p0(i64 8, ptr nonnull %5) #29
  br label %.critedge.thread21

.critedge.thread21:                               ; preds = %41, %42, %.critedge.thread
  %66 = phi i1 [ %53, %.critedge.thread ], [ true, %42 ], [ false, %41 ]
  %67 = load ptr, ptr %4, align 8, !tbaa !11
  %68 = load i64, ptr %67, align 8
  %69 = and i64 %68, 1152920405095219200
  %.not.i.i16 = icmp eq i64 %69, 1152920405095219200
  br i1 %.not.i.i16, label %.critedge, label %70, !prof !15

70:                                               ; preds = %.critedge.thread21
  %71 = add i64 %68, 1152920405095219200
  %72 = and i64 %71, 1152920405095219200
  %73 = and i64 %68, -1152920405095219201
  %74 = or disjoint i64 %72, %73
  store i64 %74, ptr %67, align 8
  %75 = icmp eq i64 %72, 0
  br i1 %75, label %76, label %.critedge, !prof !15

76:                                               ; preds = %70
  invoke void @_ZN4cvc58internal4expr9NodeValue15markForDeletionEv(ptr noundef nonnull align 8 dereferenceable(24) %67)
          to label %.critedge unwind label %77

77:                                               ; preds = %76
  %78 = landingpad { ptr, i32 }
          catch ptr null
  %79 = extractvalue { ptr, i32 } %78, 0
  call void @__clang_call_terminate(ptr %79) #30
  unreachable

.critedge:                                        ; preds = %76, %70, %.critedge.thread21, %23
  %80 = phi i1 [ false, %23 ], [ %66, %.critedge.thread21 ], [ %66, %70 ], [ %66, %76 ]
  %81 = load ptr, ptr %3, align 8, !tbaa !11
  %82 = load i64, ptr %81, align 8
  %83 = and i64 %82, 1152920405095219200
  %.not.i.i18 = icmp eq i64 %83, 1152920405095219200
  br i1 %.not.i.i18, label %_ZN4cvc58internal12NodeTemplateILb1EED2Ev.exit19, label %84, !prof !15

84:                                               ; preds = %.critedge
  %85 = add i64 %82, 1152920405095219200
  %86 = and i64 %85, 1152920405095219200
  %87 = and i64 %82, -1152920405095219201
  %88 = or disjoint i64 %86, %87
  store i64 %88, ptr %81, align 8
  %89 = icmp eq i64 %86, 0
  br i1 %89, label %90, label %_ZN4cvc58internal12NodeTemplateILb1EED2Ev.exit19, !prof !15

90:                                               ; preds = %84
  invoke void @_ZN4cvc58internal4expr9NodeValue15markForDeletionEv(ptr noundef nonnull align 8 dereferenceable(24) %81)
          to label %_ZN4cvc58internal12NodeTemplateILb1EED2Ev.exit19 unwind label %91

91:                                               ; preds = %90
  %92 = landingpad { ptr, i32 }
          catch ptr null
  %93 = extractvalue { ptr, i32 } %92, 0
  call void @__clang_call_terminate(ptr %93) #30
  unreachable

_ZN4cvc58internal12NodeTemplateILb1EED2Ev.exit19: ; preds = %.critedge, %84, %90
  ret i1 %80

94:                                               ; preds = %38, %_ZN4cvc58internal12NodeTemplateILb1EEC2ERKNS1_ILb0EEE.exit
  %95 = landingpad { ptr, i32 }
          cleanup
  br label %101

96:                                               ; preds = %_ZN4cvc58internal12NodeTemplateILb1EEC2ERKNS1_ILb0EEE.exit15
  %97 = landingpad { ptr, i32 }
          cleanup
  br label %100

98:                                               ; preds = %47
  %99 = landingpad { ptr, i32 }
          cleanup
  call void @llvm.lifetime.end.p0(i64 8, ptr nonnull %5) #29
  br label %100

100:                                              ; preds = %96, %98
  %.pn = phi { ptr, i32 } [ %99, %98 ], [ %97, %96 ]
  call void @_ZN4cvc58internal12NodeTemplateILb1EED2Ev(ptr noundef nonnull align 8 dereferenceable(8) %4) #29
  br label %101

101:                                              ; preds = %100, %94
  %.pn.pn = phi { ptr, i32 } [ %.pn, %100 ], [ %95, %94 ]
  call void @_ZN4cvc58internal12NodeTemplateILb1EED2Ev(ptr noundef nonnull align 8 dereferenceable(8) %3) #29
  resume { ptr, i32 } %.pn.pn
}